
01_arm:     file format elf32-littlearm


Disassembly of section .init:

000102c0 <_init>:
   102c0:	e92d4008 	push	{r3, lr}
   102c4:	eb00001d 	bl	10340 <call_weak_fn>
   102c8:	e8bd8008 	pop	{r3, pc}

Disassembly of section .plt:

000102cc <.plt>:
   102cc:	e52de004 	push	{lr}		; (str lr, [sp, #-4]!)
   102d0:	e59fe004 	ldr	lr, [pc, #4]	; 102dc <.plt+0x10>
   102d4:	e08fe00e 	add	lr, pc, lr
   102d8:	e5bef008 	ldr	pc, [lr, #8]!
   102dc:	00010d24 	andeq	r0, r1, r4, lsr #26

000102e0 <puts@plt>:
   102e0:	e28fc600 	add	ip, pc, #0, 12
   102e4:	e28cca10 	add	ip, ip, #16, 20	; 0x10000
   102e8:	e5bcfd24 	ldr	pc, [ip, #3364]!	; 0xd24

000102ec <__libc_start_main@plt>:
   102ec:	e28fc600 	add	ip, pc, #0, 12
   102f0:	e28cca10 	add	ip, ip, #16, 20	; 0x10000
   102f4:	e5bcfd1c 	ldr	pc, [ip, #3356]!	; 0xd1c

000102f8 <__gmon_start__@plt>:
   102f8:	e28fc600 	add	ip, pc, #0, 12
   102fc:	e28cca10 	add	ip, ip, #16, 20	; 0x10000
   10300:	e5bcfd14 	ldr	pc, [ip, #3348]!	; 0xd14

00010304 <abort@plt>:
   10304:	e28fc600 	add	ip, pc, #0, 12
   10308:	e28cca10 	add	ip, ip, #16, 20	; 0x10000
   1030c:	e5bcfd0c 	ldr	pc, [ip, #3340]!	; 0xd0c

Disassembly of section .text:

00010310 <_start>:
   10310:	f04f 0b00 	mov.w	fp, #0
   10314:	f04f 0e00 	mov.w	lr, #0
   10318:	bc02      	pop	{r1}
   1031a:	466a      	mov	r2, sp
   1031c:	b404      	push	{r2}
   1031e:	b401      	push	{r0}
   10320:	f8df c010 	ldr.w	ip, [pc, #16]	; 10334 <_start+0x24>
   10324:	f84d cd04 	str.w	ip, [sp, #-4]!
   10328:	4803      	ldr	r0, [pc, #12]	; (10338 <_start+0x28>)
   1032a:	4b04      	ldr	r3, [pc, #16]	; (1033c <_start+0x2c>)
   1032c:	f7ff efde 	blx	102ec <__libc_start_main@plt>
   10330:	f7ff efe8 	blx	10304 <abort@plt>
   10334:	0001043d 	andeq	r0, r1, sp, lsr r4
   10338:	000103d0 	ldrdeq	r0, [r1], -r0	; <UNPREDICTABLE>
   1033c:	00010401 	andeq	r0, r1, r1, lsl #8

00010340 <call_weak_fn>:
   10340:	e59f3014 	ldr	r3, [pc, #20]	; 1035c <call_weak_fn+0x1c>
   10344:	e59f2014 	ldr	r2, [pc, #20]	; 10360 <call_weak_fn+0x20>
   10348:	e08f3003 	add	r3, pc, r3
   1034c:	e7932002 	ldr	r2, [r3, r2]
   10350:	e3520000 	cmp	r2, #0
   10354:	012fff1e 	bxeq	lr
   10358:	eaffffe6 	b	102f8 <__gmon_start__@plt>
   1035c:	00010cb0 			; <UNDEFINED> instruction: 0x00010cb0
   10360:	0000001c 	andeq	r0, r0, ip, lsl r0

00010364 <deregister_tm_clones>:
   10364:	f241 0028 	movw	r0, #4136	; 0x1028
   10368:	f241 0328 	movw	r3, #4136	; 0x1028
   1036c:	f2c0 0002 	movt	r0, #2
   10370:	f2c0 0302 	movt	r3, #2
   10374:	4283      	cmp	r3, r0
   10376:	d005      	beq.n	10384 <deregister_tm_clones+0x20>
   10378:	f240 0300 	movw	r3, #0
   1037c:	f2c0 0300 	movt	r3, #0
   10380:	b103      	cbz	r3, 10384 <deregister_tm_clones+0x20>
   10382:	4718      	bx	r3
   10384:	4770      	bx	lr
   10386:	bf00      	nop

00010388 <register_tm_clones>:
   10388:	f241 0028 	movw	r0, #4136	; 0x1028
   1038c:	f241 0128 	movw	r1, #4136	; 0x1028
   10390:	f2c0 0002 	movt	r0, #2
   10394:	f2c0 0102 	movt	r1, #2
   10398:	1a09      	subs	r1, r1, r0
   1039a:	1089      	asrs	r1, r1, #2
   1039c:	eb01 71d1 	add.w	r1, r1, r1, lsr #31
   103a0:	1049      	asrs	r1, r1, #1
   103a2:	d005      	beq.n	103b0 <register_tm_clones+0x28>
   103a4:	f240 0300 	movw	r3, #0
   103a8:	f2c0 0300 	movt	r3, #0
   103ac:	b103      	cbz	r3, 103b0 <register_tm_clones+0x28>
   103ae:	4718      	bx	r3
   103b0:	4770      	bx	lr
   103b2:	bf00      	nop

000103b4 <__do_global_dtors_aux>:
   103b4:	b510      	push	{r4, lr}
   103b6:	f241 0428 	movw	r4, #4136	; 0x1028
   103ba:	f2c0 0402 	movt	r4, #2
   103be:	7823      	ldrb	r3, [r4, #0]
   103c0:	b91b      	cbnz	r3, 103ca <__do_global_dtors_aux+0x16>
   103c2:	f7ff ffcf 	bl	10364 <deregister_tm_clones>
   103c6:	2301      	movs	r3, #1
   103c8:	7023      	strb	r3, [r4, #0]
   103ca:	bd10      	pop	{r4, pc}

000103cc <frame_dummy>:
   103cc:	e7dc      	b.n	10388 <register_tm_clones>
   103ce:	bf00      	nop

000103d0 <main>:
   103d0:	e92d4800 	push	{fp, lr}
   103d4:	e28db004 	add	fp, sp, #4
   103d8:	e24dd008 	sub	sp, sp, #8
   103dc:	e50b0008 	str	r0, [fp, #-8]
   103e0:	e50b100c 	str	r1, [fp, #-12]
   103e4:	e300044c 	movw	r0, #1100	; 0x44c
   103e8:	e3400001 	movt	r0, #1
   103ec:	ebffffbb 	bl	102e0 <puts@plt>
   103f0:	e3a03000 	mov	r3, #0
   103f4:	e1a00003 	mov	r0, r3
   103f8:	e24bd004 	sub	sp, fp, #4
   103fc:	e8bd8800 	pop	{fp, pc}

00010400 <__libc_csu_init>:
   10400:	e92d 43f8 	stmdb	sp!, {r3, r4, r5, r6, r7, r8, r9, lr}
   10404:	4607      	mov	r7, r0
   10406:	4e0b      	ldr	r6, [pc, #44]	; (10434 <__libc_csu_init+0x34>)
   10408:	4688      	mov	r8, r1
   1040a:	4691      	mov	r9, r2
   1040c:	4d0a      	ldr	r5, [pc, #40]	; (10438 <__libc_csu_init+0x38>)
   1040e:	447e      	add	r6, pc
   10410:	f7ff ef56 	blx	102c0 <_init>
   10414:	447d      	add	r5, pc
   10416:	1b76      	subs	r6, r6, r5
   10418:	10b6      	asrs	r6, r6, #2
   1041a:	d009      	beq.n	10430 <__libc_csu_init+0x30>
   1041c:	2400      	movs	r4, #0
   1041e:	3401      	adds	r4, #1
   10420:	f855 3b04 	ldr.w	r3, [r5], #4
   10424:	464a      	mov	r2, r9
   10426:	4641      	mov	r1, r8
   10428:	4638      	mov	r0, r7
   1042a:	4798      	blx	r3
   1042c:	42a6      	cmp	r6, r4
   1042e:	d1f6      	bne.n	1041e <__libc_csu_init+0x1e>
   10430:	e8bd 83f8 	ldmia.w	sp!, {r3, r4, r5, r6, r7, r8, r9, pc}
   10434:	00010b02 	andeq	r0, r1, r2, lsl #22
   10438:	00010af8 	strdeq	r0, [r1], -r8

0001043c <__libc_csu_fini>:
   1043c:	4770      	bx	lr
   1043e:	bf00      	nop

Disassembly of section .fini:

00010440 <_fini>:
   10440:	e92d4008 	push	{r3, lr}
   10444:	e8bd8008 	pop	{r3, pc}
